; Function Attrs: null_pointer_is_valid sspstrong uwtable
define internal i32 @dissect_keyparam_baseiv(ptr noundef %0, ptr noundef %1, ptr noundef %2, ptr readnone captures(none) %3) #0 {
  %5 = alloca i32, align 4
  call void @llvm.lifetime.start.p0(i64 4, ptr nonnull %5) #8
  store i32 0, ptr %5, align 4
  %6 = getelementptr inbounds nuw i8, ptr %1, i64 408
  %7 = load ptr, ptr %6, align 8
  %8 = call ptr @wscbor_chunk_read(ptr noundef %7, ptr noundef %0, ptr noundef nonnull %5)
  %9 = load ptr, ptr %6, align 8
  %10 = call ptr @wscbor_require_bstr(ptr noundef %9, ptr noundef %8)
  %11 = load i32, ptr @hf_keyparam_baseiv, align 4
  %12 = call ptr @proto_tree_add_cbor_bstr(ptr noundef %2, i32 noundef %11, ptr noundef %1, ptr noundef %0, ptr noundef %8)
  %13 = load i32, ptr %5, align 4
  call void @llvm.lifetime.end.p0(i64 4, ptr nonnull %5) #8
  ret i32 %13
}